target datalayout = "e-m:e-p270:32:32-p271:32:32-p272:64:64-i64:64-i128:128-f80:128-n8:16:32:64-S128"
target triple = "x86_64-pc-linux-gnu"

%struct.ZDICT_cover_params_t = type { i32, i32, i32, i32, double, i32, i32, %struct.ZDICT_params_t }
%struct.ZDICT_params_t = type { i32, i32, i32 }
%struct.COVER_best_s = type { %union.pthread_mutex_t, %union.pthread_cond_t, i64, ptr, i64, %struct.ZDICT_cover_params_t, i64 }
%union.pthread_mutex_t = type { %struct.__pthread_mutex_s }
%struct.__pthread_mutex_s = type { i32, i32, i32, i32, i32, i16, i16, %struct.__pthread_internal_list }
%struct.__pthread_internal_list = type { ptr, ptr }
%union.pthread_cond_t = type { %struct.__pthread_cond_s }
%struct.__pthread_cond_s = type { %union.__atomic_wide_counter, %union.__atomic_wide_counter, [2 x i32], [2 x i32], i32, i32, [2 x i32] }
%union.__atomic_wide_counter = type { i64 }
%struct.COVER_dictSelection = type { ptr, i64, i64 }

; Function Attrs: nounwind uwtable
define void @COVER_best_finish(ptr noundef %0, ptr noundef byval(%struct.ZDICT_cover_params_t) align 8 %1, ptr noundef byval(%struct.COVER_dictSelection) align 8 %2) #0 {
  %4 = alloca ptr, align 8
  %5 = alloca ptr, align 8
  %6 = alloca i64, align 8
  %7 = alloca i64, align 8
  %8 = alloca i32, align 4
  %9 = alloca i64, align 8
  store ptr %0, ptr %4, align 8, !tbaa !65
  call void @llvm.lifetime.start.p0(i64 8, ptr %5) #10
  %10 = getelementptr inbounds nuw %struct.COVER_dictSelection, ptr %2, i32 0, i32 0
  %11 = load ptr, ptr %10, align 8, !tbaa !73
  store ptr %11, ptr %5, align 8, !tbaa !21
  call void @llvm.lifetime.start.p0(i64 8, ptr %6) #10
  %12 = getelementptr inbounds nuw %struct.COVER_dictSelection, ptr %2, i32 0, i32 2
  %13 = load i64, ptr %12, align 8, !tbaa !75
  store i64 %13, ptr %6, align 8, !tbaa !10
  call void @llvm.lifetime.start.p0(i64 8, ptr %7) #10
  %14 = getelementptr inbounds nuw %struct.COVER_dictSelection, ptr %2, i32 0, i32 1
  %15 = load i64, ptr %14, align 8, !tbaa !76
  store i64 %15, ptr %7, align 8, !tbaa !10
  %16 = load ptr, ptr %4, align 8, !tbaa !65
  %17 = icmp ne ptr %16, null
  br i1 %17, label %19, label %18

18:                                               ; preds = %3
  store i32 1, ptr %8, align 4
  br label %108

19:                                               ; preds = %3
  call void @llvm.lifetime.start.p0(i64 8, ptr %9) #10
  %20 = load ptr, ptr %4, align 8, !tbaa !65
  %21 = getelementptr inbounds nuw %struct.COVER_best_s, ptr %20, i32 0, i32 0
  %22 = call i32 @pthread_mutex_lock(ptr noundef %21) #10
  %23 = load ptr, ptr %4, align 8, !tbaa !65
  %24 = getelementptr inbounds nuw %struct.COVER_best_s, ptr %23, i32 0, i32 2
  %25 = load i64, ptr %24, align 8, !tbaa !67
  %26 = add i64 %25, -1
  store i64 %26, ptr %24, align 8, !tbaa !67
  %27 = load ptr, ptr %4, align 8, !tbaa !65
  %28 = getelementptr inbounds nuw %struct.COVER_best_s, ptr %27, i32 0, i32 2
  %29 = load i64, ptr %28, align 8, !tbaa !67
  store i64 %29, ptr %9, align 8, !tbaa !10
  %30 = load i64, ptr %6, align 8, !tbaa !10
  %31 = load ptr, ptr %4, align 8, !tbaa !65
  %32 = getelementptr inbounds nuw %struct.COVER_best_s, ptr %31, i32 0, i32 6
  %33 = load i64, ptr %32, align 8, !tbaa !71
  %34 = icmp ult i64 %30, %33
  br i1 %34, label %35, label %94

35:                                               ; preds = %19
  %36 = load ptr, ptr %4, align 8, !tbaa !65
  %37 = getelementptr inbounds nuw %struct.COVER_best_s, ptr %36, i32 0, i32 3
  %38 = load ptr, ptr %37, align 8, !tbaa !69
  %39 = icmp ne ptr %38, null
  br i1 %39, label %40, label %46

40:                                               ; preds = %35
  %41 = load ptr, ptr %4, align 8, !tbaa !65
  %42 = getelementptr inbounds nuw %struct.COVER_best_s, ptr %41, i32 0, i32 4
  %43 = load i64, ptr %42, align 8, !tbaa !70
  %44 = load i64, ptr %7, align 8, !tbaa !10
  %45 = icmp ult i64 %43, %44
  br i1 %45, label %46, label %76

46:                                               ; preds = %40, %35
  %47 = load ptr, ptr %4, align 8, !tbaa !65
  %48 = getelementptr inbounds nuw %struct.COVER_best_s, ptr %47, i32 0, i32 3
  %49 = load ptr, ptr %48, align 8, !tbaa !69
  %50 = icmp ne ptr %49, null
  br i1 %50, label %51, label %55

51:                                               ; preds = %46
  %52 = load ptr, ptr %4, align 8, !tbaa !65
  %53 = getelementptr inbounds nuw %struct.COVER_best_s, ptr %52, i32 0, i32 3
  %54 = load ptr, ptr %53, align 8, !tbaa !69
  call void @free(ptr noundef %54) #10
  br label %55

55:                                               ; preds = %51, %46
  %56 = load i64, ptr %7, align 8, !tbaa !10
  %57 = call noalias ptr @malloc(i64 noundef %56) #11
  %58 = load ptr, ptr %4, align 8, !tbaa !65
  %59 = getelementptr inbounds nuw %struct.COVER_best_s, ptr %58, i32 0, i32 3
  store ptr %57, ptr %59, align 8, !tbaa !69
  %60 = load ptr, ptr %4, align 8, !tbaa !65
  %61 = getelementptr inbounds nuw %struct.COVER_best_s, ptr %60, i32 0, i32 3
  %62 = load ptr, ptr %61, align 8, !tbaa !69
  %63 = icmp ne ptr %62, null
  br i1 %63, label %75, label %64

64:                                               ; preds = %55
  %65 = load ptr, ptr %4, align 8, !tbaa !65
  %66 = getelementptr inbounds nuw %struct.COVER_best_s, ptr %65, i32 0, i32 6
  store i64 -1, ptr %66, align 8, !tbaa !71
  %67 = load ptr, ptr %4, align 8, !tbaa !65
  %68 = getelementptr inbounds nuw %struct.COVER_best_s, ptr %67, i32 0, i32 4
  store i64 0, ptr %68, align 8, !tbaa !70
  %69 = load ptr, ptr %4, align 8, !tbaa !65
  %70 = getelementptr inbounds nuw %struct.COVER_best_s, ptr %69, i32 0, i32 1
  %71 = call i32 @pthread_cond_signal(ptr noundef %70) #10
  %72 = load ptr, ptr %4, align 8, !tbaa !65
  %73 = getelementptr inbounds nuw %struct.COVER_best_s, ptr %72, i32 0, i32 0
  %74 = call i32 @pthread_mutex_unlock(ptr noundef %73) #10
  store i32 1, ptr %8, align 4
  br label %105

75:                                               ; preds = %55
  br label %76

76:                                               ; preds = %75, %40
  %77 = load ptr, ptr %5, align 8, !tbaa !21
  %78 = icmp ne ptr %77, null
  br i1 %78, label %79, label %93

79:                                               ; preds = %76
  %80 = load ptr, ptr %4, align 8, !tbaa !65
  %81 = getelementptr inbounds nuw %struct.COVER_best_s, ptr %80, i32 0, i32 3
  %82 = load ptr, ptr %81, align 8, !tbaa !69
  %83 = load ptr, ptr %5, align 8, !tbaa !21
  %84 = load i64, ptr %7, align 8, !tbaa !10
  call void @llvm.memcpy.p0.p0.i64(ptr align 1 %82, ptr align 1 %83, i64 %84, i1 false)
  %85 = load i64, ptr %7, align 8, !tbaa !10
  %86 = load ptr, ptr %4, align 8, !tbaa !65
  %87 = getelementptr inbounds nuw %struct.COVER_best_s, ptr %86, i32 0, i32 4
  store i64 %85, ptr %87, align 8, !tbaa !70
  %88 = load ptr, ptr %4, align 8, !tbaa !65
  %89 = getelementptr inbounds nuw %struct.COVER_best_s, ptr %88, i32 0, i32 5
  call void @llvm.memcpy.p0.p0.i64(ptr align 8 %89, ptr align 8 %1, i64 48, i1 false), !tbaa.struct !77
  %90 = load i64, ptr %6, align 8, !tbaa !10
  %91 = load ptr, ptr %4, align 8, !tbaa !65
  %92 = getelementptr inbounds nuw %struct.COVER_best_s, ptr %91, i32 0, i32 6
  store i64 %90, ptr %92, align 8, !tbaa !71
  br label %93

93:                                               ; preds = %79, %76
  br label %94

94:                                               ; preds = %93, %19
  %95 = load i64, ptr %9, align 8, !tbaa !10
  %96 = icmp eq i64 %95, 0
  br i1 %96, label %97, label %101

97:                                               ; preds = %94
  %98 = load ptr, ptr %4, align 8, !tbaa !65
  %99 = getelementptr inbounds nuw %struct.COVER_best_s, ptr %98, i32 0, i32 1
  %100 = call i32 @pthread_cond_broadcast(ptr noundef %99) #10
  br label %101

101:                                              ; preds = %97, %94
  %102 = load ptr, ptr %4, align 8, !tbaa !65
  %103 = getelementptr inbounds nuw %struct.COVER_best_s, ptr %102, i32 0, i32 0
  %104 = call i32 @pthread_mutex_unlock(ptr noundef %103) #10
  store i32 0, ptr %8, align 4
  br label %105

105:                                              ; preds = %101, %64
  call void @llvm.lifetime.end.p0(i64 8, ptr %9) #10
  %106 = load i32, ptr %8, align 4
  switch i32 %106, label %108 [
    i32 0, label %107
  ]

107:                                              ; preds = %105
  store i32 0, ptr %8, align 4
  br label %108

108:                                              ; preds = %107, %105, %18
  call void @llvm.lifetime.end.p0(i64 8, ptr %7) #10
  call void @llvm.lifetime.end.p0(i64 8, ptr %6) #10
  call void @llvm.lifetime.end.p0(i64 8, ptr %5) #10
  %109 = load i32, ptr %8, align 4
  switch i32 %109, label %111 [
    i32 0, label %110
    i32 1, label %110
  ]

110:                                              ; preds = %108, %108
  ret void

111:                                              ; preds = %108
  unreachable
}