; Function Attrs: nounwind uwtable
define void @COVER_best_finish(ptr noundef %0, ptr noundef readonly byval(%struct.ZDICT_cover_params_t) align 8 captures(none) %1, ptr noundef readonly byval(%struct.COVER_dictSelection) align 8 captures(none) %2) local_unnamed_addr #5 {
  %4 = load ptr, ptr %2, align 8, !tbaa !63
  %5 = getelementptr inbounds nuw i8, ptr %2, i64 16
  %6 = load i64, ptr %5, align 8, !tbaa !65
  %7 = getelementptr inbounds nuw i8, ptr %2, i64 8
  %8 = load i64, ptr %7, align 8, !tbaa !66
  %.not = icmp eq ptr %0, null
  br i1 %.not, label %41, label %9

9:                                                ; preds = %3
  %10 = tail call i32 @pthread_mutex_lock(ptr noundef nonnull %0) #22
  %11 = getelementptr inbounds nuw i8, ptr %0, i64 88
  %12 = load i64, ptr %11, align 8, !tbaa !60
  %13 = add i64 %12, -1
  store i64 %13, ptr %11, align 8, !tbaa !60
  %14 = getelementptr inbounds nuw i8, ptr %0, i64 160
  %15 = load i64, ptr %14, align 8, !tbaa !58
  %16 = icmp ult i64 %6, %15
  br i1 %16, label %17, label %35

17:                                               ; preds = %9
  %18 = getelementptr inbounds nuw i8, ptr %0, i64 96
  %19 = load ptr, ptr %18, align 8, !tbaa !62
  %.not34 = icmp eq ptr %19, null
  br i1 %.not34, label %.thread, label %20

20:                                               ; preds = %17
  %21 = getelementptr inbounds nuw i8, ptr %0, i64 104
  %22 = load i64, ptr %21, align 8, !tbaa !67
  %23 = icmp ult i64 %22, %8
  br i1 %23, label %24, label %30

24:                                               ; preds = %20
  tail call void @free(ptr noundef nonnull %19) #22
  br label %.thread

.thread:                                          ; preds = %17, %24
  %25 = tail call noalias ptr @malloc(i64 noundef %8) #24
  store ptr %25, ptr %18, align 8, !tbaa !62
  %.not36 = icmp eq ptr %25, null
  br i1 %.not36, label %26, label %30

26:                                               ; preds = %.thread
  store i64 -1, ptr %14, align 8, !tbaa !58
  %27 = getelementptr inbounds nuw i8, ptr %0, i64 104
  store i64 0, ptr %27, align 8, !tbaa !67
  %28 = getelementptr inbounds nuw i8, ptr %0, i64 40
  %29 = tail call i32 @pthread_cond_signal(ptr noundef nonnull %28) #22
  br label %.sink.split

30:                                               ; preds = %.thread, %20
  %31 = phi ptr [ %25, %.thread ], [ %19, %20 ]
  %.not37 = icmp eq ptr %4, null
  br i1 %.not37, label %35, label %32

32:                                               ; preds = %30
  tail call void @llvm.memcpy.p0.p0.i64(ptr nonnull align 1 %31, ptr nonnull align 1 %4, i64 %8, i1 false)
  %33 = getelementptr inbounds nuw i8, ptr %0, i64 104
  store i64 %8, ptr %33, align 8, !tbaa !67
  %34 = getelementptr inbounds nuw i8, ptr %0, i64 112
  call void @llvm.memcpy.p0.p0.i64(ptr noundef nonnull align 8 dereferenceable(48) %34, ptr noundef nonnull align 8 dereferenceable(48) %1, i64 48, i1 false), !tbaa.struct !68
  store i64 %6, ptr %14, align 8, !tbaa !58
  br label %35

35:                                               ; preds = %30, %32, %9
  %36 = icmp eq i64 %13, 0
  br i1 %36, label %37, label %.sink.split

37:                                               ; preds = %35
  %38 = getelementptr inbounds nuw i8, ptr %0, i64 40
  %39 = tail call i32 @pthread_cond_broadcast(ptr noundef nonnull %38) #22
  br label %.sink.split

.sink.split:                                      ; preds = %35, %37, %26
  %40 = tail call i32 @pthread_mutex_unlock(ptr noundef nonnull %0) #22
  br label %41

41:                                               ; preds = %.sink.split, %3
  ret void
}